target datalayout = "e-m:e-p270:32:32-p271:32:32-p272:64:64-i64:64-i128:128-f80:128-n8:16:32:64-S128"
target triple = "x86_64-unknown-linux-gnu"

%"class.sat::literal" = type { i32 }
%"struct.sat::npn3_finder::quaternary" = type { %"class.sat::literal", %"class.sat::literal", %"class.sat::literal", %"class.sat::literal", ptr }

; Function Attrs: mustprogress nounwind uwtable
define linkonce_odr hidden noundef i32 @_ZNK3sat7literal7to_uintEv(ptr noundef nonnull align 4 dereferenceable(4) %this) #4 comdat align 2 {
entry:
  %this.addr = alloca ptr, align 8
  store ptr %this, ptr %this.addr, align 8
  %this1 = load ptr, ptr %this.addr, align 8
  %m_val = getelementptr inbounds %"class.sat::literal", ptr %this1, i32 0, i32 0
  %0 = load i32, ptr %m_val, align 4
  ret i32 %0
}

; Function Attrs: mustprogress nounwind uwtable
define linkonce_odr hidden noundef i32 @_Z6mk_mixjjj(i32 noundef %a, i32 noundef %b, i32 noundef %c) #4 comdat {
entry:
  %a.addr = alloca i32, align 4
  %b.addr = alloca i32, align 4
  %c.addr = alloca i32, align 4
  store i32 %a, ptr %a.addr, align 4
  store i32 %b, ptr %b.addr, align 4
  store i32 %c, ptr %c.addr, align 4
  %0 = load i32, ptr %b.addr, align 4
  %1 = load i32, ptr %a.addr, align 4
  %sub = sub i32 %1, %0
  store i32 %sub, ptr %a.addr, align 4
  %2 = load i32, ptr %c.addr, align 4
  %3 = load i32, ptr %a.addr, align 4
  %sub1 = sub i32 %3, %2
  store i32 %sub1, ptr %a.addr, align 4
  %4 = load i32, ptr %c.addr, align 4
  %shr = lshr i32 %4, 13
  %5 = load i32, ptr %a.addr, align 4
  %xor = xor i32 %5, %shr
  store i32 %xor, ptr %a.addr, align 4
  %6 = load i32, ptr %c.addr, align 4
  %7 = load i32, ptr %b.addr, align 4
  %sub2 = sub i32 %7, %6
  store i32 %sub2, ptr %b.addr, align 4
  %8 = load i32, ptr %a.addr, align 4
  %9 = load i32, ptr %b.addr, align 4
  %sub3 = sub i32 %9, %8
  store i32 %sub3, ptr %b.addr, align 4
  %10 = load i32, ptr %a.addr, align 4
  %shl = shl i32 %10, 8
  %11 = load i32, ptr %b.addr, align 4
  %xor4 = xor i32 %11, %shl
  store i32 %xor4, ptr %b.addr, align 4
  %12 = load i32, ptr %a.addr, align 4
  %13 = load i32, ptr %c.addr, align 4
  %sub5 = sub i32 %13, %12
  store i32 %sub5, ptr %c.addr, align 4
  %14 = load i32, ptr %b.addr, align 4
  %15 = load i32, ptr %c.addr, align 4
  %sub6 = sub i32 %15, %14
  store i32 %sub6, ptr %c.addr, align 4
  %16 = load i32, ptr %b.addr, align 4
  %shr7 = lshr i32 %16, 13
  %17 = load i32, ptr %c.addr, align 4
  %xor8 = xor i32 %17, %shr7
  store i32 %xor8, ptr %c.addr, align 4
  %18 = load i32, ptr %b.addr, align 4
  %19 = load i32, ptr %a.addr, align 4
  %sub9 = sub i32 %19, %18
  store i32 %sub9, ptr %a.addr, align 4
  %20 = load i32, ptr %c.addr, align 4
  %21 = load i32, ptr %a.addr, align 4
  %sub10 = sub i32 %21, %20
  store i32 %sub10, ptr %a.addr, align 4
  %22 = load i32, ptr %c.addr, align 4
  %shr11 = lshr i32 %22, 12
  %23 = load i32, ptr %a.addr, align 4
  %xor12 = xor i32 %23, %shr11
  store i32 %xor12, ptr %a.addr, align 4
  %24 = load i32, ptr %c.addr, align 4
  %25 = load i32, ptr %b.addr, align 4
  %sub13 = sub i32 %25, %24
  store i32 %sub13, ptr %b.addr, align 4
  %26 = load i32, ptr %a.addr, align 4
  %27 = load i32, ptr %b.addr, align 4
  %sub14 = sub i32 %27, %26
  store i32 %sub14, ptr %b.addr, align 4
  %28 = load i32, ptr %a.addr, align 4
  %shl15 = shl i32 %28, 16
  %29 = load i32, ptr %b.addr, align 4
  %xor16 = xor i32 %29, %shl15
  store i32 %xor16, ptr %b.addr, align 4
  %30 = load i32, ptr %a.addr, align 4
  %31 = load i32, ptr %c.addr, align 4
  %sub17 = sub i32 %31, %30
  store i32 %sub17, ptr %c.addr, align 4
  %32 = load i32, ptr %b.addr, align 4
  %33 = load i32, ptr %c.addr, align 4
  %sub18 = sub i32 %33, %32
  store i32 %sub18, ptr %c.addr, align 4
  %34 = load i32, ptr %b.addr, align 4
  %shr19 = lshr i32 %34, 5
  %35 = load i32, ptr %c.addr, align 4
  %xor20 = xor i32 %35, %shr19
  store i32 %xor20, ptr %c.addr, align 4
  %36 = load i32, ptr %b.addr, align 4
  %37 = load i32, ptr %a.addr, align 4
  %sub21 = sub i32 %37, %36
  store i32 %sub21, ptr %a.addr, align 4
  %38 = load i32, ptr %c.addr, align 4
  %39 = load i32, ptr %a.addr, align 4
  %sub22 = sub i32 %39, %38
  store i32 %sub22, ptr %a.addr, align 4
  %40 = load i32, ptr %c.addr, align 4
  %shr23 = lshr i32 %40, 3
  %41 = load i32, ptr %a.addr, align 4
  %xor24 = xor i32 %41, %shr23
  store i32 %xor24, ptr %a.addr, align 4
  %42 = load i32, ptr %c.addr, align 4
  %43 = load i32, ptr %b.addr, align 4
  %sub25 = sub i32 %43, %42
  store i32 %sub25, ptr %b.addr, align 4
  %44 = load i32, ptr %a.addr, align 4
  %45 = load i32, ptr %b.addr, align 4
  %sub26 = sub i32 %45, %44
  store i32 %sub26, ptr %b.addr, align 4
  %46 = load i32, ptr %a.addr, align 4
  %shl27 = shl i32 %46, 10
  %47 = load i32, ptr %b.addr, align 4
  %xor28 = xor i32 %47, %shl27
  store i32 %xor28, ptr %b.addr, align 4
  %48 = load i32, ptr %a.addr, align 4
  %49 = load i32, ptr %c.addr, align 4
  %sub29 = sub i32 %49, %48
  store i32 %sub29, ptr %c.addr, align 4
  %50 = load i32, ptr %b.addr, align 4
  %51 = load i32, ptr %c.addr, align 4
  %sub30 = sub i32 %51, %50
  store i32 %sub30, ptr %c.addr, align 4
  %52 = load i32, ptr %b.addr, align 4
  %shr31 = lshr i32 %52, 15
  %53 = load i32, ptr %c.addr, align 4
  %xor32 = xor i32 %53, %shr31
  store i32 %xor32, ptr %c.addr, align 4
  %54 = load i32, ptr %c.addr, align 4
  ret i32 %54
}

; Function Attrs: mustprogress uwtable
define linkonce_odr hidden noundef i32 @_ZNK3sat7literal4hashEv(ptr noundef nonnull align 4 dereferenceable(4) %this) #5 comdat align 2 {
entry:
  %this.addr = alloca ptr, align 8
  store ptr %this, ptr %this.addr, align 8
  %this1 = load ptr, ptr %this.addr, align 8
  %call = call noundef i32 @_ZNK3sat7literal7to_uintEv(ptr noundef nonnull align 4 dereferenceable(4) %this1)
  ret i32 %call
}

; Function Attrs: mustprogress uwtable
define hidden noundef i32 @_ZNK3sat11npn3_finder10quaternary4hashclERKS1_(ptr noundef nonnull align 1 dereferenceable(1) %this, ptr noundef nonnull align 8 dereferenceable(24) %t) #5 align 2 {
entry:
  %this.addr = alloca ptr, align 8
  %t.addr = alloca ptr, align 8
  store ptr %this, ptr %this.addr, align 8
  store ptr %t, ptr %t.addr, align 8
  %0 = load ptr, ptr %t.addr, align 8
  %w = getelementptr inbounds %"struct.sat::npn3_finder::quaternary", ptr %0, i32 0, i32 0
  %call = call noundef i32 @_ZNK3sat7literal4hashEv(ptr noundef nonnull align 4 dereferenceable(4) %w)
  %1 = load ptr, ptr %t.addr, align 8
  %x = getelementptr inbounds %"struct.sat::npn3_finder::quaternary", ptr %1, i32 0, i32 1
  %call2 = call noundef i32 @_ZNK3sat7literal4hashEv(ptr noundef nonnull align 4 dereferenceable(4) %x)
  %2 = load ptr, ptr %t.addr, align 8
  %y = getelementptr inbounds %"struct.sat::npn3_finder::quaternary", ptr %2, i32 0, i32 2
  %call3 = call noundef i32 @_ZNK3sat7literal4hashEv(ptr noundef nonnull align 4 dereferenceable(4) %y)
  %3 = load ptr, ptr %t.addr, align 8
  %z = getelementptr inbounds %"struct.sat::npn3_finder::quaternary", ptr %3, i32 0, i32 3
  %call4 = call noundef i32 @_ZNK3sat7literal4hashEv(ptr noundef nonnull align 4 dereferenceable(4) %z)
  %call5 = call noundef i32 @_Z6mk_mixjjj(i32 noundef %call3, i32 noundef %call4, i32 noundef 3)
  %call6 = call noundef i32 @_Z6mk_mixjjj(i32 noundef %call, i32 noundef %call2, i32 noundef %call5)
  ret i32 %call6
}