; Function Attrs: mustprogress nofree norecurse nosync nounwind willreturn memory(argmem: read) uwtable
define hidden noundef i32 @_ZNK3sat11npn3_finder10quaternary4hashclERKS1_(ptr nocapture noundef nonnull readnone align 1 dereferenceable(1) %this, ptr nocapture noundef nonnull readonly align 8 dereferenceable(24) %t) local_unnamed_addr #6 align 2 {
entry:
  %0 = load i32, ptr %t, align 8
  %x = getelementptr inbounds i8, ptr %t, i64 4
  %1 = load i32, ptr %x, align 4
  %y = getelementptr inbounds i8, ptr %t, i64 8
  %2 = load i32, ptr %y, align 8
  %z = getelementptr inbounds i8, ptr %t, i64 12
  %3 = load i32, ptr %z, align 4
  %.neg29 = add i32 %2, -3
  %sub1.i = sub i32 %.neg29, %3
  %.neg30 = add i32 %3, -3
  %sub3.i = sub i32 %.neg30, %sub1.i
  %shl.i = shl i32 %sub1.i, 8
  %xor4.i = xor i32 %sub3.i, %shl.i
  %4 = add i32 %sub1.i, %xor4.i
  %sub6.i = sub i32 3, %4
  %shr7.i = lshr i32 %xor4.i, 13
  %xor8.i = xor i32 %sub6.i, %shr7.i
  %5 = add i32 %xor4.i, %xor8.i
  %sub10.i = sub i32 %sub1.i, %5
  %shr11.i = lshr i32 %xor8.i, 12
  %xor12.i = xor i32 %sub10.i, %shr11.i
  %6 = add i32 %xor8.i, %xor12.i
  %sub14.i = sub i32 %xor4.i, %6
  %shl15.i = shl i32 %xor12.i, 16
  %xor16.i = xor i32 %sub14.i, %shl15.i
  %7 = add i32 %xor12.i, %xor16.i
  %sub18.i = sub i32 %xor8.i, %7
  %shr19.i = lshr i32 %xor16.i, 5
  %xor20.i = xor i32 %sub18.i, %shr19.i
  %8 = add i32 %xor16.i, %xor20.i
  %sub22.i = sub i32 %xor12.i, %8
  %shr23.i = lshr i32 %xor20.i, 3
  %xor24.i = xor i32 %sub22.i, %shr23.i
  %9 = add i32 %xor20.i, %xor24.i
  %sub26.i = sub i32 %xor16.i, %9
  %shl27.i = shl i32 %xor24.i, 10
  %xor28.i = xor i32 %sub26.i, %shl27.i
  %10 = add i32 %xor24.i, %xor28.i
  %sub30.i = sub i32 %xor20.i, %10
  %shr31.i = lshr i32 %xor28.i, 15
  %xor32.i = xor i32 %sub30.i, %shr31.i
  %11 = add i32 %1, %xor32.i
  %sub1.i4 = sub i32 %0, %11
  %shr.i = lshr i32 %xor32.i, 13
  %xor.i = xor i32 %sub1.i4, %shr.i
  %12 = add i32 %xor32.i, %xor.i
  %sub3.i5 = sub i32 %1, %12
  %shl.i6 = shl i32 %xor.i, 8
  %xor4.i7 = xor i32 %sub3.i5, %shl.i6
  %13 = add i32 %xor.i, %xor4.i7
  %sub6.i8 = sub i32 %xor32.i, %13
  %shr7.i9 = lshr i32 %xor4.i7, 13
  %xor8.i10 = xor i32 %sub6.i8, %shr7.i9
  %14 = add i32 %xor4.i7, %xor8.i10
  %sub10.i11 = sub i32 %xor.i, %14
  %shr11.i12 = lshr i32 %xor8.i10, 12
  %xor12.i13 = xor i32 %sub10.i11, %shr11.i12
  %15 = add i32 %xor8.i10, %xor12.i13
  %sub14.i14 = sub i32 %xor4.i7, %15
  %shl15.i15 = shl i32 %xor12.i13, 16
  %xor16.i16 = xor i32 %sub14.i14, %shl15.i15
  %16 = add i32 %xor12.i13, %xor16.i16
  %sub18.i17 = sub i32 %xor8.i10, %16
  %shr19.i18 = lshr i32 %xor16.i16, 5
  %xor20.i19 = xor i32 %sub18.i17, %shr19.i18
  %17 = add i32 %xor16.i16, %xor20.i19
  %sub22.i20 = sub i32 %xor12.i13, %17
  %shr23.i21 = lshr i32 %xor20.i19, 3
  %xor24.i22 = xor i32 %sub22.i20, %shr23.i21
  %18 = add i32 %xor20.i19, %xor24.i22
  %sub26.i23 = sub i32 %xor16.i16, %18
  %shl27.i24 = shl i32 %xor24.i22, 10
  %xor28.i25 = xor i32 %sub26.i23, %shl27.i24
  %19 = add i32 %xor24.i22, %xor28.i25
  %sub30.i26 = sub i32 %xor20.i19, %19
  %shr31.i27 = lshr i32 %xor28.i25, 15
  %xor32.i28 = xor i32 %sub30.i26, %shr31.i27
  ret i32 %xor32.i28
}